target datalayout = "e-m:e-p270:32:32-p271:32:32-p272:64:64-i64:64-i128:128-f80:128-n8:16:32:64-S128"
target triple = "x86_64-pc-linux-gnu"

%struct.SDL_VideoDisplay = type { i32, ptr, i32, i32, ptr, %struct.SDL_DisplayMode, ptr, i32, i32, float, %struct.SDL_HDROutputProperties, i8, ptr, ptr, i32, ptr }
%struct.SDL_DisplayMode = type { i32, i32, i32, i32, float, float, i32, i32, ptr }
%struct.SDL_HDROutputProperties = type { float, float }
%struct.SDL_DisplayData = type { ptr, ptr, ptr, ptr, ptr, double, i32, i32, i32, i32, i32, i32, i32, i32, i32, i32, i32, i32, i8, i8, i8, %struct.SDL_HDROutputProperties, i32, %struct.SDL_VideoDisplay, i32, ptr }

@WAYLAND_wl_proxy_get_version = external global ptr, align 8

; Function Attrs: inlinehint nounwind uwtable
define internal i32 @wl_output_get_version(ptr noundef %0) #1 {
  %2 = alloca ptr, align 8
  store ptr %0, ptr %2, align 8
  %3 = load ptr, ptr @WAYLAND_wl_proxy_get_version, align 8
  %4 = load ptr, ptr %2, align 8
  %5 = call i32 %3(ptr noundef %4)
  ret i32 %5
}

; Function Attrs: nounwind uwtable
define internal void @xdg_output_handle_description(ptr noundef %0, ptr noundef %1, ptr noundef %2) #0 {
  %4 = alloca ptr, align 8
  %5 = alloca ptr, align 8
  %6 = alloca ptr, align 8
  %7 = alloca ptr, align 8
  store ptr %0, ptr %4, align 8
  store ptr %1, ptr %5, align 8
  store ptr %2, ptr %6, align 8
  call void @llvm.lifetime.start.p0(i64 8, ptr %7) #8
  %8 = load ptr, ptr %4, align 8
  store ptr %8, ptr %7, align 8
  %9 = load ptr, ptr %7, align 8
  %10 = getelementptr inbounds nuw %struct.SDL_DisplayData, ptr %9, i32 0, i32 1
  %11 = load ptr, ptr %10, align 8
  %12 = call i32 @wl_output_get_version(ptr noundef %11)
  %13 = icmp ult i32 %12, 4
  br i1 %13, label %14, label %29

14:                                               ; preds = %3
  %15 = load ptr, ptr %7, align 8
  %16 = getelementptr inbounds nuw %struct.SDL_DisplayData, ptr %15, i32 0, i32 22
  %17 = load i32, ptr %16, align 4
  %18 = icmp eq i32 %17, 0
  br i1 %18, label %19, label %29

19:                                               ; preds = %14
  %20 = load ptr, ptr %7, align 8
  %21 = getelementptr inbounds nuw %struct.SDL_DisplayData, ptr %20, i32 0, i32 23
  %22 = getelementptr inbounds nuw %struct.SDL_VideoDisplay, ptr %21, i32 0, i32 1
  %23 = load ptr, ptr %22, align 8
  call void @SDL_free_REAL(ptr noundef %23)
  %24 = load ptr, ptr %6, align 8
  %25 = call noalias ptr @SDL_strdup_REAL(ptr noundef %24)
  %26 = load ptr, ptr %7, align 8
  %27 = getelementptr inbounds nuw %struct.SDL_DisplayData, ptr %26, i32 0, i32 23
  %28 = getelementptr inbounds nuw %struct.SDL_VideoDisplay, ptr %27, i32 0, i32 1
  store ptr %25, ptr %28, align 8
  br label %29

29:                                               ; preds = %19, %14, %3
  call void @llvm.lifetime.end.p0(i64 8, ptr %7) #8
  ret void
}