; Function Attrs: nounwind uwtable
define internal void @xdg_output_handle_description(ptr noundef captures(none) %0, ptr readnone captures(none) %1, ptr noundef %2) #0 {
  %4 = getelementptr inbounds nuw i8, ptr %0, i64 8
  %5 = load ptr, ptr %4, align 8
  %6 = load ptr, ptr @WAYLAND_wl_proxy_get_version, align 8
  %7 = tail call i32 %6(ptr noundef %5) #12
  %8 = icmp ult i32 %7, 4
  br i1 %8, label %9, label %17

9:                                                ; preds = %3
  %10 = getelementptr inbounds nuw i8, ptr %0, i64 108
  %11 = load i32, ptr %10, align 4
  %12 = icmp eq i32 %11, 0
  br i1 %12, label %13, label %17

13:                                               ; preds = %9
  %14 = getelementptr inbounds nuw i8, ptr %0, i64 120
  %15 = load ptr, ptr %14, align 8
  tail call void @SDL_free_REAL(ptr noundef %15) #12
  %16 = tail call noalias ptr @SDL_strdup_REAL(ptr noundef %2) #12
  store ptr %16, ptr %14, align 8
  br label %17

17:                                               ; preds = %13, %9, %3
  ret void
}